target datalayout = "e-m:e-p270:32:32-p271:32:32-p272:64:64-i64:64-i128:128-f80:128-n8:16:32:64-S128"
target triple = "x86_64-pc-linux-gnu"

@.str = private unnamed_addr constant [14 x i8] c"Stream Closed\00", align 1
@.str.1 = private unnamed_addr constant [11 x i8] c"Read error\00", align 1

; Function Attrs: nounwind uwtable
define hidden i32 @readSingle(ptr noundef %0, ptr noundef %1, ptr noundef %2) #0 {
  %4 = alloca i32, align 4
  %5 = alloca ptr, align 8
  %6 = alloca ptr, align 8
  %7 = alloca ptr, align 8
  %8 = alloca i32, align 4
  %9 = alloca i8, align 1
  %10 = alloca i32, align 4
  store ptr %0, ptr %5, align 8
  store ptr %1, ptr %6, align 8
  store ptr %2, ptr %7, align 8
  %11 = load ptr, ptr %5, align 8
  %12 = load ptr, ptr %6, align 8
  %13 = load ptr, ptr %7, align 8
  %14 = call i32 @getFD(ptr noundef %11, ptr noundef %12, ptr noundef %13)
  store i32 %14, ptr %10, align 4
  %15 = load i32, ptr %10, align 4
  %16 = icmp eq i32 %15, -1
  br i1 %16, label %17, label %19

17:                                               ; preds = %3
  %18 = load ptr, ptr %5, align 8
  call void @JNU_ThrowIOException(ptr noundef %18, ptr noundef @.str)
  store i32 -1, ptr %4, align 4
  br label %36

19:                                               ; preds = %3
  %20 = load i32, ptr %10, align 4
  %21 = call i64 @handleRead(i32 noundef %20, ptr noundef %9, i32 noundef 1)
  %22 = trunc i64 %21 to i32
  store i32 %22, ptr %8, align 4
  %23 = load i32, ptr %8, align 4
  %24 = icmp eq i32 %23, 0
  br i1 %24, label %25, label %26

25:                                               ; preds = %19
  store i32 -1, ptr %4, align 4
  br label %36

26:                                               ; preds = %19
  %27 = load i32, ptr %8, align 4
  %28 = icmp eq i32 %27, -1
  br i1 %28, label %29, label %31

29:                                               ; preds = %26
  %30 = load ptr, ptr %5, align 8
  call void @JNU_ThrowIOExceptionWithLastError(ptr noundef %30, ptr noundef @.str.1)
  br label %31

31:                                               ; preds = %29, %26
  br label %32

32:                                               ; preds = %31
  %33 = load i8, ptr %9, align 1
  %34 = sext i8 %33 to i32
  %35 = and i32 %34, 255
  store i32 %35, ptr %4, align 4
  br label %36

36:                                               ; preds = %32, %25, %17
  %37 = load i32, ptr %4, align 4
  ret i32 %37
}