; Function Attrs: nounwind uwtable
define hidden range(i32 -1, 256) i32 @readSingle(ptr noundef %0, ptr noundef %1, ptr noundef %2) local_unnamed_addr #0 {
  %4 = alloca i8, align 1
  %5 = tail call i32 @getFD(ptr noundef %0, ptr noundef %1, ptr noundef %2) #4
  %6 = icmp eq i32 %5, -1
  br i1 %6, label %7, label %8

7:                                                ; preds = %3
  tail call void @JNU_ThrowIOException(ptr noundef %0, ptr noundef nonnull @.str) #4
  br label %15

8:                                                ; preds = %3
  %9 = call i64 @handleRead(i32 noundef %5, ptr noundef nonnull %4, i32 noundef 1) #4
  %10 = trunc i64 %9 to i32
  switch i32 %10, label %12 [
    i32 0, label %15
    i32 -1, label %11
  ]

11:                                               ; preds = %8
  call void @JNU_ThrowIOExceptionWithLastError(ptr noundef %0, ptr noundef nonnull @.str.1) #4
  br label %12

12:                                               ; preds = %8, %11
  %13 = load i8, ptr %4, align 1
  %14 = zext i8 %13 to i32
  br label %15

15:                                               ; preds = %8, %12, %7
  %.0 = phi i32 [ -1, %7 ], [ %14, %12 ], [ -1, %8 ]
  ret i32 %.0
}